; Listing generated by Microsoft (R) Optimizing Compiler Version 19.27.29111.0 

	TITLE	C:\Users\1610036\source\repos\Lab1_Program_Languages\Lab1_Program_Languages\lab1.c
	.686P
	.XMM
	include listing.inc
	.model	flat

INCLUDELIB MSVCRTD
INCLUDELIB OLDNAMES

msvcjmc	SEGMENT
__03E453DF_lab1@c DB 01H
msvcjmc	ENDS
PUBLIC	_main
PUBLIC	__JustMyCode_Default
EXTRN	@__CheckForDebuggerJustMyCode@4:PROC
; Function compile flags: /Odt
;	COMDAT __JustMyCode_Default
_TEXT	SEGMENT
__JustMyCode_Default PROC				; COMDAT
  00000	55		 push	 ebp
  00001	8b ec		 mov	 ebp, esp
  00003	5d		 pop	 ebp
  00004	c3		 ret	 0
__JustMyCode_Default ENDP
_TEXT	ENDS
; Function compile flags: /Ogtp
; File C:\Users\1610036\source\repos\Lab1_Program_Languages\Lab1_Program_Languages\lab1.c
;	COMDAT _main
_TEXT	SEGMENT
_main	PROC						; COMDAT
  00000	b9 00 00 00 00	 mov	 ecx, OFFSET __03E453DF_lab1@c
  00005	e8 00 00 00 00	 call	 @__CheckForDebuggerJustMyCode@4
  0000a	33 c0		 xor	 eax, eax
  0000c	c3		 ret	 0
_main	ENDP
_TEXT	ENDS
END
